target datalayout = "e-m:e-p270:32:32-p271:32:32-p272:64:64-i64:64-i128:128-f80:128-n8:16:32:64-S128"
target triple = "x86_64-unknown-linux-gnu"

%"class.std::__cxx11::basic_string.8" = type { %"struct.std::__cxx11::basic_string<wchar_t>::_Alloc_hider", i64, %union.anon.12 }
%"struct.std::__cxx11::basic_string<wchar_t>::_Alloc_hider" = type { ptr }
%union.anon.12 = type { i64, [8 x i8] }

; Function Attrs: mustprogress nounwind uwtable
define internal noundef i64 @_ZN4pugi4impl12_GLOBAL__N_113utf32_counter4highEmj(i64 noundef %result, i32 noundef %0) #0 align 2 {
entry:
  %result.addr = alloca i64, align 8
  %.addr = alloca i32, align 4
  store i64 %result, ptr %result.addr, align 8
  store i32 %0, ptr %.addr, align 4
  %1 = load i64, ptr %result.addr, align 8
  %add = add i64 %1, 1
  ret i64 %add
}

; Function Attrs: mustprogress nounwind uwtable
define internal noundef i64 @_ZN4pugi4impl12_GLOBAL__N_113utf32_counter3lowEmj(i64 noundef %result, i32 noundef %0) #0 align 2 {
entry:
  %result.addr = alloca i64, align 8
  %.addr = alloca i32, align 4
  store i64 %result, ptr %result.addr, align 8
  store i32 %0, ptr %.addr, align 4
  %1 = load i64, ptr %result.addr, align 8
  %add = add i64 %1, 1
  ret i64 %add
}

; Function Attrs: mustprogress uwtable
define internal noundef i64 @_ZN4pugi4impl12_GLOBAL__N_112utf8_decoder7processINS1_13utf32_counterEEENT_10value_typeEPKhmS6_S5_(ptr noundef %data, i64 noundef %size, i64 noundef %result) #2 align 2 {
entry:
  %data.addr = alloca ptr, align 8
  %size.addr = alloca i64, align 8
  %result.addr = alloca i64, align 8
  %utf8_byte_mask = alloca i8, align 1
  %lead = alloca i8, align 1
  store ptr %data, ptr %data.addr, align 8
  store i64 %size, ptr %size.addr, align 8
  store i64 %result, ptr %result.addr, align 8
  store i8 63, ptr %utf8_byte_mask, align 1
  br label %while.cond

while.cond:                                       ; preds = %if.end120, %entry
  %0 = load i64, ptr %size.addr, align 8
  %tobool = icmp ne i64 %0, 0
  br i1 %tobool, label %while.body, label %while.end121

while.body:                                       ; preds = %while.cond
  %1 = load ptr, ptr %data.addr, align 8
  %2 = load i8, ptr %1, align 1
  store i8 %2, ptr %lead, align 1
  %3 = load i8, ptr %lead, align 1
  %conv = zext i8 %3 to i32
  %cmp = icmp slt i32 %conv, 128
  br i1 %cmp, label %if.then, label %if.else

if.then:                                          ; preds = %while.body
  %4 = load i64, ptr %result.addr, align 8
  %5 = load i8, ptr %lead, align 1
  %conv1 = zext i8 %5 to i32
  %call = call noundef i64 @_ZN4pugi4impl12_GLOBAL__N_113utf32_counter3lowEmj(i64 noundef %4, i32 noundef %conv1)
  store i64 %call, ptr %result.addr, align 8
  %6 = load ptr, ptr %data.addr, align 8
  %add.ptr = getelementptr inbounds i8, ptr %6, i64 1
  store ptr %add.ptr, ptr %data.addr, align 8
  %7 = load i64, ptr %size.addr, align 8
  %sub = sub i64 %7, 1
  store i64 %sub, ptr %size.addr, align 8
  %8 = load ptr, ptr %data.addr, align 8
  %9 = ptrtoint ptr %8 to i64
  %and = and i64 %9, 3
  %cmp2 = icmp eq i64 %and, 0
  br i1 %cmp2, label %if.then3, label %if.end

if.then3:                                         ; preds = %if.then
  br label %while.cond4

while.cond4:                                      ; preds = %while.body8, %if.then3
  %10 = load i64, ptr %size.addr, align 8
  %cmp5 = icmp uge i64 %10, 4
  br i1 %cmp5, label %land.rhs, label %land.end

land.rhs:                                         ; preds = %while.cond4
  %11 = load ptr, ptr %data.addr, align 8
  %12 = load i32, ptr %11, align 4
  %and6 = and i32 %12, -2139062144
  %cmp7 = icmp eq i32 %and6, 0
  br label %land.end

land.end:                                         ; preds = %land.rhs, %while.cond4
  %13 = phi i1 [ false, %while.cond4 ], [ %cmp7, %land.rhs ]
  br i1 %13, label %while.body8, label %while.end

while.body8:                                      ; preds = %land.end
  %14 = load i64, ptr %result.addr, align 8
  %15 = load ptr, ptr %data.addr, align 8
  %arrayidx = getelementptr inbounds i8, ptr %15, i64 0
  %16 = load i8, ptr %arrayidx, align 1
  %conv9 = zext i8 %16 to i32
  %call10 = call noundef i64 @_ZN4pugi4impl12_GLOBAL__N_113utf32_counter3lowEmj(i64 noundef %14, i32 noundef %conv9)
  store i64 %call10, ptr %result.addr, align 8
  %17 = load i64, ptr %result.addr, align 8
  %18 = load ptr, ptr %data.addr, align 8
  %arrayidx11 = getelementptr inbounds i8, ptr %18, i64 1
  %19 = load i8, ptr %arrayidx11, align 1
  %conv12 = zext i8 %19 to i32
  %call13 = call noundef i64 @_ZN4pugi4impl12_GLOBAL__N_113utf32_counter3lowEmj(i64 noundef %17, i32 noundef %conv12)
  store i64 %call13, ptr %result.addr, align 8
  %20 = load i64, ptr %result.addr, align 8
  %21 = load ptr, ptr %data.addr, align 8
  %arrayidx14 = getelementptr inbounds i8, ptr %21, i64 2
  %22 = load i8, ptr %arrayidx14, align 1
  %conv15 = zext i8 %22 to i32
  %call16 = call noundef i64 @_ZN4pugi4impl12_GLOBAL__N_113utf32_counter3lowEmj(i64 noundef %20, i32 noundef %conv15)
  store i64 %call16, ptr %result.addr, align 8
  %23 = load i64, ptr %result.addr, align 8
  %24 = load ptr, ptr %data.addr, align 8
  %arrayidx17 = getelementptr inbounds i8, ptr %24, i64 3
  %25 = load i8, ptr %arrayidx17, align 1
  %conv18 = zext i8 %25 to i32
  %call19 = call noundef i64 @_ZN4pugi4impl12_GLOBAL__N_113utf32_counter3lowEmj(i64 noundef %23, i32 noundef %conv18)
  store i64 %call19, ptr %result.addr, align 8
  %26 = load ptr, ptr %data.addr, align 8
  %add.ptr20 = getelementptr inbounds i8, ptr %26, i64 4
  store ptr %add.ptr20, ptr %data.addr, align 8
  %27 = load i64, ptr %size.addr, align 8
  %sub21 = sub i64 %27, 4
  store i64 %sub21, ptr %size.addr, align 8
  br label %while.cond4, !llvm.loop !187

while.end:                                        ; preds = %land.end
  br label %if.end

if.end:                                           ; preds = %while.end, %if.then
  br label %if.end120

if.else:                                          ; preds = %while.body
  %28 = load i8, ptr %lead, align 1
  %conv22 = zext i8 %28 to i32
  %sub23 = sub nsw i32 %conv22, 192
  %cmp24 = icmp ult i32 %sub23, 32
  br i1 %cmp24, label %land.lhs.true, label %if.else40

land.lhs.true:                                    ; preds = %if.else
  %29 = load i64, ptr %size.addr, align 8
  %cmp25 = icmp uge i64 %29, 2
  br i1 %cmp25, label %land.lhs.true26, label %if.else40

land.lhs.true26:                                  ; preds = %land.lhs.true
  %30 = load ptr, ptr %data.addr, align 8
  %arrayidx27 = getelementptr inbounds i8, ptr %30, i64 1
  %31 = load i8, ptr %arrayidx27, align 1
  %conv28 = zext i8 %31 to i32
  %and29 = and i32 %conv28, 192
  %cmp30 = icmp eq i32 %and29, 128
  br i1 %cmp30, label %if.then31, label %if.else40

if.then31:                                        ; preds = %land.lhs.true26
  %32 = load i64, ptr %result.addr, align 8
  %33 = load i8, ptr %lead, align 1
  %conv32 = zext i8 %33 to i32
  %and33 = and i32 %conv32, -193
  %shl = shl i32 %and33, 6
  %34 = load ptr, ptr %data.addr, align 8
  %arrayidx34 = getelementptr inbounds i8, ptr %34, i64 1
  %35 = load i8, ptr %arrayidx34, align 1
  %conv35 = zext i8 %35 to i32
  %and36 = and i32 %conv35, 63
  %or = or i32 %shl, %and36
  %call37 = call noundef i64 @_ZN4pugi4impl12_GLOBAL__N_113utf32_counter3lowEmj(i64 noundef %32, i32 noundef %or)
  store i64 %call37, ptr %result.addr, align 8
  %36 = load ptr, ptr %data.addr, align 8
  %add.ptr38 = getelementptr inbounds i8, ptr %36, i64 2
  store ptr %add.ptr38, ptr %data.addr, align 8
  %37 = load i64, ptr %size.addr, align 8
  %sub39 = sub i64 %37, 2
  store i64 %sub39, ptr %size.addr, align 8
  br label %if.end119

if.else40:                                        ; preds = %land.lhs.true26, %land.lhs.true, %if.else
  %38 = load i8, ptr %lead, align 1
  %conv41 = zext i8 %38 to i32
  %sub42 = sub nsw i32 %conv41, 224
  %cmp43 = icmp ult i32 %sub42, 16
  br i1 %cmp43, label %land.lhs.true44, label %if.else72

land.lhs.true44:                                  ; preds = %if.else40
  %39 = load i64, ptr %size.addr, align 8
  %cmp45 = icmp uge i64 %39, 3
  br i1 %cmp45, label %land.lhs.true46, label %if.else72

land.lhs.true46:                                  ; preds = %land.lhs.true44
  %40 = load ptr, ptr %data.addr, align 8
  %arrayidx47 = getelementptr inbounds i8, ptr %40, i64 1
  %41 = load i8, ptr %arrayidx47, align 1
  %conv48 = zext i8 %41 to i32
  %and49 = and i32 %conv48, 192
  %cmp50 = icmp eq i32 %and49, 128
  br i1 %cmp50, label %land.lhs.true51, label %if.else72

land.lhs.true51:                                  ; preds = %land.lhs.true46
  %42 = load ptr, ptr %data.addr, align 8
  %arrayidx52 = getelementptr inbounds i8, ptr %42, i64 2
  %43 = load i8, ptr %arrayidx52, align 1
  %conv53 = zext i8 %43 to i32
  %and54 = and i32 %conv53, 192
  %cmp55 = icmp eq i32 %and54, 128
  br i1 %cmp55, label %if.then56, label %if.else72

if.then56:                                        ; preds = %land.lhs.true51
  %44 = load i64, ptr %result.addr, align 8
  %45 = load i8, ptr %lead, align 1
  %conv57 = zext i8 %45 to i32
  %and58 = and i32 %conv57, -225
  %shl59 = shl i32 %and58, 12
  %46 = load ptr, ptr %data.addr, align 8
  %arrayidx60 = getelementptr inbounds i8, ptr %46, i64 1
  %47 = load i8, ptr %arrayidx60, align 1
  %conv61 = zext i8 %47 to i32
  %and62 = and i32 %conv61, 63
  %shl63 = shl i32 %and62, 6
  %or64 = or i32 %shl59, %shl63
  %48 = load ptr, ptr %data.addr, align 8
  %arrayidx65 = getelementptr inbounds i8, ptr %48, i64 2
  %49 = load i8, ptr %arrayidx65, align 1
  %conv66 = zext i8 %49 to i32
  %and67 = and i32 %conv66, 63
  %or68 = or i32 %or64, %and67
  %call69 = call noundef i64 @_ZN4pugi4impl12_GLOBAL__N_113utf32_counter3lowEmj(i64 noundef %44, i32 noundef %or68)
  store i64 %call69, ptr %result.addr, align 8
  %50 = load ptr, ptr %data.addr, align 8
  %add.ptr70 = getelementptr inbounds i8, ptr %50, i64 3
  store ptr %add.ptr70, ptr %data.addr, align 8
  %51 = load i64, ptr %size.addr, align 8
  %sub71 = sub i64 %51, 3
  store i64 %sub71, ptr %size.addr, align 8
  br label %if.end118

if.else72:                                        ; preds = %land.lhs.true51, %land.lhs.true46, %land.lhs.true44, %if.else40
  %52 = load i8, ptr %lead, align 1
  %conv73 = zext i8 %52 to i32
  %sub74 = sub nsw i32 %conv73, 240
  %cmp75 = icmp ult i32 %sub74, 8
  br i1 %cmp75, label %land.lhs.true76, label %if.else114

land.lhs.true76:                                  ; preds = %if.else72
  %53 = load i64, ptr %size.addr, align 8
  %cmp77 = icmp uge i64 %53, 4
  br i1 %cmp77, label %land.lhs.true78, label %if.else114

land.lhs.true78:                                  ; preds = %land.lhs.true76
  %54 = load ptr, ptr %data.addr, align 8
  %arrayidx79 = getelementptr inbounds i8, ptr %54, i64 1
  %55 = load i8, ptr %arrayidx79, align 1
  %conv80 = zext i8 %55 to i32
  %and81 = and i32 %conv80, 192
  %cmp82 = icmp eq i32 %and81, 128
  br i1 %cmp82, label %land.lhs.true83, label %if.else114

land.lhs.true83:                                  ; preds = %land.lhs.true78
  %56 = load ptr, ptr %data.addr, align 8
  %arrayidx84 = getelementptr inbounds i8, ptr %56, i64 2
  %57 = load i8, ptr %arrayidx84, align 1
  %conv85 = zext i8 %57 to i32
  %and86 = and i32 %conv85, 192
  %cmp87 = icmp eq i32 %and86, 128
  br i1 %cmp87, label %land.lhs.true88, label %if.else114

land.lhs.true88:                                  ; preds = %land.lhs.true83
  %58 = load ptr, ptr %data.addr, align 8
  %arrayidx89 = getelementptr inbounds i8, ptr %58, i64 3
  %59 = load i8, ptr %arrayidx89, align 1
  %conv90 = zext i8 %59 to i32
  %and91 = and i32 %conv90, 192
  %cmp92 = icmp eq i32 %and91, 128
  br i1 %cmp92, label %if.then93, label %if.else114

if.then93:                                        ; preds = %land.lhs.true88
  %60 = load i64, ptr %result.addr, align 8
  %61 = load i8, ptr %lead, align 1
  %conv94 = zext i8 %61 to i32
  %and95 = and i32 %conv94, -241
  %shl96 = shl i32 %and95, 18
  %62 = load ptr, ptr %data.addr, align 8
  %arrayidx97 = getelementptr inbounds i8, ptr %62, i64 1
  %63 = load i8, ptr %arrayidx97, align 1
  %conv98 = zext i8 %63 to i32
  %and99 = and i32 %conv98, 63
  %shl100 = shl i32 %and99, 12
  %or101 = or i32 %shl96, %shl100
  %64 = load ptr, ptr %data.addr, align 8
  %arrayidx102 = getelementptr inbounds i8, ptr %64, i64 2
  %65 = load i8, ptr %arrayidx102, align 1
  %conv103 = zext i8 %65 to i32
  %and104 = and i32 %conv103, 63
  %shl105 = shl i32 %and104, 6
  %or106 = or i32 %or101, %shl105
  %66 = load ptr, ptr %data.addr, align 8
  %arrayidx107 = getelementptr inbounds i8, ptr %66, i64 3
  %67 = load i8, ptr %arrayidx107, align 1
  %conv108 = zext i8 %67 to i32
  %and109 = and i32 %conv108, 63
  %or110 = or i32 %or106, %and109
  %call111 = call noundef i64 @_ZN4pugi4impl12_GLOBAL__N_113utf32_counter4highEmj(i64 noundef %60, i32 noundef %or110)
  store i64 %call111, ptr %result.addr, align 8
  %68 = load ptr, ptr %data.addr, align 8
  %add.ptr112 = getelementptr inbounds i8, ptr %68, i64 4
  store ptr %add.ptr112, ptr %data.addr, align 8
  %69 = load i64, ptr %size.addr, align 8
  %sub113 = sub i64 %69, 4
  store i64 %sub113, ptr %size.addr, align 8
  br label %if.end117

if.else114:                                       ; preds = %land.lhs.true88, %land.lhs.true83, %land.lhs.true78, %land.lhs.true76, %if.else72
  %70 = load ptr, ptr %data.addr, align 8
  %add.ptr115 = getelementptr inbounds i8, ptr %70, i64 1
  store ptr %add.ptr115, ptr %data.addr, align 8
  %71 = load i64, ptr %size.addr, align 8
  %sub116 = sub i64 %71, 1
  store i64 %sub116, ptr %size.addr, align 8
  br label %if.end117

if.end117:                                        ; preds = %if.else114, %if.then93
  br label %if.end118

if.end118:                                        ; preds = %if.end117, %if.then56
  br label %if.end119

if.end119:                                        ; preds = %if.end118, %if.then31
  br label %if.end120

if.end120:                                        ; preds = %if.end119, %if.end
  br label %while.cond, !llvm.loop !188

while.end121:                                     ; preds = %while.cond
  %72 = load i64, ptr %result.addr, align 8
  ret i64 %72
}

; Function Attrs: mustprogress uwtable
define internal void @_ZN4pugi4impl12_GLOBAL__N_112as_wide_implB5cxx11EPKcm(ptr noalias sret(%"class.std::__cxx11::basic_string.8") align 8 %agg.result, ptr noundef %str, i64 noundef %size) #2 personality ptr @__gxx_personality_v0 {
entry:
  %result.ptr = alloca ptr, align 8
  %str.addr = alloca ptr, align 8
  %size.addr = alloca i64, align 8
  %data = alloca ptr, align 8
  %length = alloca i64, align 8
  %nrvo = alloca i1, align 1
  %exn.slot = alloca ptr, align 8
  %ehselector.slot = alloca i32, align 4
  %begin = alloca ptr, align 8
  %end = alloca ptr, align 8
  store ptr %agg.result, ptr %result.ptr, align 8
  store ptr %str, ptr %str.addr, align 8
  store i64 %size, ptr %size.addr, align 8
  %0 = load ptr, ptr %str.addr, align 8
  store ptr %0, ptr %data, align 8
  %1 = load ptr, ptr %data, align 8
  %2 = load i64, ptr %size.addr, align 8
  %call = call noundef i64 @_ZN4pugi4impl12_GLOBAL__N_112utf8_decoder7processINS1_13utf32_counterEEENT_10value_typeEPKhmS6_S5_(ptr noundef %1, i64 noundef %2, i64 noundef 0)
  store i64 %call, ptr %length, align 8
  store i1 false, ptr %nrvo, align 1
  call void @_ZNSt7__cxx1112basic_stringIwSt11char_traitsIwESaIwEEC1Ev(ptr noundef nonnull align 8 dereferenceable(32) %agg.result) #9
  %3 = load i64, ptr %length, align 8
  invoke void @_ZNSt7__cxx1112basic_stringIwSt11char_traitsIwESaIwEE6resizeEm(ptr noundef nonnull align 8 dereferenceable(32) %agg.result, i64 noundef %3)
          to label %invoke.cont unwind label %lpad

invoke.cont:                                      ; preds = %entry
  %4 = load i64, ptr %length, align 8
  %cmp = icmp ugt i64 %4, 0
  br i1 %cmp, label %if.then, label %if.end

if.then:                                          ; preds = %invoke.cont
  %call2 = invoke noundef nonnull align 4 dereferenceable(4) ptr @_ZNSt7__cxx1112basic_stringIwSt11char_traitsIwESaIwEEixEm(ptr noundef nonnull align 8 dereferenceable(32) %agg.result, i64 noundef 0)
          to label %invoke.cont1 unwind label %lpad

invoke.cont1:                                     ; preds = %if.then
  store ptr %call2, ptr %begin, align 8
  %5 = load ptr, ptr %data, align 8
  %6 = load i64, ptr %size.addr, align 8
  %7 = load ptr, ptr %begin, align 8
  %call5 = invoke noundef ptr @_ZN4pugi4impl12_GLOBAL__N_112utf8_decoder7processINS1_12utf32_writerEEENT_10value_typeEPKhmS6_S5_(ptr noundef %5, i64 noundef %6, ptr noundef %7)
          to label %invoke.cont4 unwind label %lpad

invoke.cont4:                                     ; preds = %invoke.cont1
  store ptr %call5, ptr %end, align 8
  br label %if.end

lpad:                                             ; preds = %invoke.cont1, %if.then, %entry
  %8 = landingpad { ptr, i32 }
          cleanup
  %9 = extractvalue { ptr, i32 } %8, 0
  store ptr %9, ptr %exn.slot, align 8
  %10 = extractvalue { ptr, i32 } %8, 1
  store i32 %10, ptr %ehselector.slot, align 4
  call void @_ZNSt7__cxx1112basic_stringIwSt11char_traitsIwESaIwEED1Ev(ptr noundef nonnull align 8 dereferenceable(32) %agg.result) #9
  br label %eh.resume

if.end:                                           ; preds = %invoke.cont4, %invoke.cont
  store i1 true, ptr %nrvo, align 1
  %nrvo.val = load i1, ptr %nrvo, align 1
  br i1 %nrvo.val, label %nrvo.skipdtor, label %nrvo.unused

nrvo.unused:                                      ; preds = %if.end
  call void @_ZNSt7__cxx1112basic_stringIwSt11char_traitsIwESaIwEED1Ev(ptr noundef nonnull align 8 dereferenceable(32) %agg.result) #9
  br label %nrvo.skipdtor

nrvo.skipdtor:                                    ; preds = %nrvo.unused, %if.end
  ret void

eh.resume:                                        ; preds = %lpad
  %exn = load ptr, ptr %exn.slot, align 8
  %sel = load i32, ptr %ehselector.slot, align 4
  %lpad.val = insertvalue { ptr, i32 } poison, ptr %exn, 0
  %lpad.val6 = insertvalue { ptr, i32 } %lpad.val, i32 %sel, 1
  resume { ptr, i32 } %lpad.val6
}