; Function Attrs: mustprogress uwtable
define internal fastcc void @_ZN4pugi4impl12_GLOBAL__N_112as_wide_implB5cxx11EPKcm(ptr noalias align 8 %agg.result, ptr noundef %str, i64 noundef %size) unnamed_addr #6 personality ptr @__gxx_personality_v0 {
entry:
  %tobool.not61.i = icmp eq i64 %size, 0
  br i1 %tobool.not61.i, label %_ZN4pugi4impl12_GLOBAL__N_112utf8_decoder7processINS1_13utf32_counterEEENT_10value_typeEPKhmS6_S5_.exit, label %while.body.i

while.body.i:                                     ; preds = %entry, %if.end120.i
  %data.addr.064.i = phi ptr [ %data.addr.2.i, %if.end120.i ], [ %str, %entry ]
  %size.addr.063.i = phi i64 [ %size.addr.2.i, %if.end120.i ], [ %size, %entry ]
  %result.addr.062.i = phi i64 [ %result.addr.2.i, %if.end120.i ], [ 0, %entry ]
  %0 = load i8, ptr %data.addr.064.i, align 1
  %conv.i = zext i8 %0 to i32
  %cmp.i = icmp sgt i8 %0, -1
  br i1 %cmp.i, label %if.then.i, label %if.else.i

if.then.i:                                        ; preds = %while.body.i
  %add.i.i = add i64 %result.addr.062.i, 1
  %add.ptr.i = getelementptr inbounds i8, ptr %data.addr.064.i, i64 1
  %sub.i = add i64 %size.addr.063.i, -1
  %1 = ptrtoint ptr %add.ptr.i to i64
  %and.i = and i64 %1, 3
  %cmp2.i = icmp eq i64 %and.i, 0
  %cmp5.i = icmp ugt i64 %sub.i, 3
  %or.cond3.i = and i1 %cmp5.i, %cmp2.i
  br i1 %or.cond3.i, label %land.rhs.i, label %if.end120.i

land.rhs.i:                                       ; preds = %if.then.i, %while.body8.i
  %result.addr.1.i = phi i64 [ %add.i57.i, %while.body8.i ], [ %add.i.i, %if.then.i ]
  %size.addr.1.i = phi i64 [ %sub21.i, %while.body8.i ], [ %sub.i, %if.then.i ]
  %data.addr.1.i = phi ptr [ %add.ptr20.i, %while.body8.i ], [ %add.ptr.i, %if.then.i ]
  %2 = load i32, ptr %data.addr.1.i, align 4
  %and6.i = and i32 %2, -2139062144
  %cmp7.i = icmp eq i32 %and6.i, 0
  br i1 %cmp7.i, label %while.body8.i, label %if.end120.i

while.body8.i:                                    ; preds = %land.rhs.i
  %add.i57.i = add i64 %result.addr.1.i, 4
  %add.ptr20.i = getelementptr inbounds i8, ptr %data.addr.1.i, i64 4
  %sub21.i = add i64 %size.addr.1.i, -4
  %cmp5.old.i = icmp ugt i64 %sub21.i, 3
  br i1 %cmp5.old.i, label %land.rhs.i, label %if.end120.i

if.else.i:                                        ; preds = %while.body.i
  %3 = and i32 %conv.i, 224
  %cmp24.i = icmp eq i32 %3, 192
  %cmp25.i = icmp ne i64 %size.addr.063.i, 1
  %or.cond.i = and i1 %cmp25.i, %cmp24.i
  br i1 %or.cond.i, label %land.lhs.true26.i, label %if.else40.i

land.lhs.true26.i:                                ; preds = %if.else.i
  %arrayidx27.i = getelementptr inbounds i8, ptr %data.addr.064.i, i64 1
  %4 = load i8, ptr %arrayidx27.i, align 1
  %5 = and i8 %4, -64
  %cmp30.i = icmp eq i8 %5, -128
  br i1 %cmp30.i, label %if.then31.i, label %if.else40.i

if.then31.i:                                      ; preds = %land.lhs.true26.i
  %add.i58.i = add i64 %result.addr.062.i, 1
  %add.ptr38.i = getelementptr inbounds i8, ptr %data.addr.064.i, i64 2
  %sub39.i = add i64 %size.addr.063.i, -2
  br label %if.end120.i

if.else40.i:                                      ; preds = %land.lhs.true26.i, %if.else.i
  %6 = and i32 %conv.i, 240
  %cmp43.i = icmp eq i32 %6, 224
  %cmp45.i = icmp ugt i64 %size.addr.063.i, 2
  %or.cond1.i = and i1 %cmp45.i, %cmp43.i
  br i1 %or.cond1.i, label %land.lhs.true46.i, label %if.else72.i

land.lhs.true46.i:                                ; preds = %if.else40.i
  %arrayidx47.i = getelementptr inbounds i8, ptr %data.addr.064.i, i64 1
  %7 = load i8, ptr %arrayidx47.i, align 1
  %8 = and i8 %7, -64
  %cmp50.i = icmp eq i8 %8, -128
  br i1 %cmp50.i, label %land.lhs.true51.i, label %if.else72.i

land.lhs.true51.i:                                ; preds = %land.lhs.true46.i
  %arrayidx52.i = getelementptr inbounds i8, ptr %data.addr.064.i, i64 2
  %9 = load i8, ptr %arrayidx52.i, align 1
  %10 = and i8 %9, -64
  %cmp55.i = icmp eq i8 %10, -128
  br i1 %cmp55.i, label %if.then56.i, label %if.else72.i

if.then56.i:                                      ; preds = %land.lhs.true51.i
  %add.i59.i = add i64 %result.addr.062.i, 1
  %add.ptr70.i = getelementptr inbounds i8, ptr %data.addr.064.i, i64 3
  %sub71.i = add i64 %size.addr.063.i, -3
  br label %if.end120.i

if.else72.i:                                      ; preds = %land.lhs.true51.i, %land.lhs.true46.i, %if.else40.i
  %11 = and i32 %conv.i, 248
  %cmp75.i = icmp eq i32 %11, 240
  %cmp77.i = icmp ugt i64 %size.addr.063.i, 3
  %or.cond2.i = and i1 %cmp77.i, %cmp75.i
  br i1 %or.cond2.i, label %land.lhs.true78.i, label %if.else114.i

land.lhs.true78.i:                                ; preds = %if.else72.i
  %arrayidx79.i = getelementptr inbounds i8, ptr %data.addr.064.i, i64 1
  %12 = load i8, ptr %arrayidx79.i, align 1
  %13 = and i8 %12, -64
  %cmp82.i = icmp eq i8 %13, -128
  br i1 %cmp82.i, label %land.lhs.true83.i, label %if.else114.i

land.lhs.true83.i:                                ; preds = %land.lhs.true78.i
  %arrayidx84.i = getelementptr inbounds i8, ptr %data.addr.064.i, i64 2
  %14 = load i8, ptr %arrayidx84.i, align 1
  %15 = and i8 %14, -64
  %cmp87.i = icmp eq i8 %15, -128
  br i1 %cmp87.i, label %land.lhs.true88.i, label %if.else114.i

land.lhs.true88.i:                                ; preds = %land.lhs.true83.i
  %arrayidx89.i = getelementptr inbounds i8, ptr %data.addr.064.i, i64 3
  %16 = load i8, ptr %arrayidx89.i, align 1
  %17 = and i8 %16, -64
  %cmp92.i = icmp eq i8 %17, -128
  br i1 %cmp92.i, label %if.then93.i, label %if.else114.i

if.then93.i:                                      ; preds = %land.lhs.true88.i
  %add.i60.i = add i64 %result.addr.062.i, 1
  %add.ptr112.i = getelementptr inbounds i8, ptr %data.addr.064.i, i64 4
  %sub113.i = add i64 %size.addr.063.i, -4
  br label %if.end120.i

if.else114.i:                                     ; preds = %land.lhs.true88.i, %land.lhs.true83.i, %land.lhs.true78.i, %if.else72.i
  %add.ptr115.i = getelementptr inbounds i8, ptr %data.addr.064.i, i64 1
  %sub116.i = add i64 %size.addr.063.i, -1
  br label %if.end120.i

if.end120.i:                                      ; preds = %while.body8.i, %land.rhs.i, %if.else114.i, %if.then93.i, %if.then56.i, %if.then31.i, %if.then.i
  %result.addr.2.i = phi i64 [ %add.i.i, %if.then.i ], [ %add.i58.i, %if.then31.i ], [ %add.i59.i, %if.then56.i ], [ %add.i60.i, %if.then93.i ], [ %result.addr.062.i, %if.else114.i ], [ %add.i57.i, %while.body8.i ], [ %result.addr.1.i, %land.rhs.i ]
  %size.addr.2.i = phi i64 [ %sub.i, %if.then.i ], [ %sub39.i, %if.then31.i ], [ %sub71.i, %if.then56.i ], [ %sub113.i, %if.then93.i ], [ %sub116.i, %if.else114.i ], [ %sub21.i, %while.body8.i ], [ %size.addr.1.i, %land.rhs.i ]
  %data.addr.2.i = phi ptr [ %add.ptr.i, %if.then.i ], [ %add.ptr38.i, %if.then31.i ], [ %add.ptr70.i, %if.then56.i ], [ %add.ptr112.i, %if.then93.i ], [ %add.ptr115.i, %if.else114.i ], [ %add.ptr20.i, %while.body8.i ], [ %data.addr.1.i, %land.rhs.i ]
  %tobool.not.i = icmp eq i64 %size.addr.2.i, 0
  br i1 %tobool.not.i, label %_ZN4pugi4impl12_GLOBAL__N_112utf8_decoder7processINS1_13utf32_counterEEENT_10value_typeEPKhmS6_S5_.exit, label %while.body.i, !llvm.loop !157

_ZN4pugi4impl12_GLOBAL__N_112utf8_decoder7processINS1_13utf32_counterEEENT_10value_typeEPKhmS6_S5_.exit: ; preds = %if.end120.i, %entry
  %result.addr.0.lcssa.i = phi i64 [ 0, %entry ], [ %result.addr.2.i, %if.end120.i ]
  tail call void @_ZNSt7__cxx1112basic_stringIwSt11char_traitsIwESaIwEEC1Ev(ptr noundef nonnull align 8 dereferenceable(32) %agg.result) #42
  invoke void @_ZNSt7__cxx1112basic_stringIwSt11char_traitsIwESaIwEE6resizeEm(ptr noundef nonnull align 8 dereferenceable(32) %agg.result, i64 noundef %result.addr.0.lcssa.i)
          to label %invoke.cont unwind label %lpad

invoke.cont:                                      ; preds = %_ZN4pugi4impl12_GLOBAL__N_112utf8_decoder7processINS1_13utf32_counterEEENT_10value_typeEPKhmS6_S5_.exit
  %cmp.not = icmp eq i64 %result.addr.0.lcssa.i, 0
  br i1 %cmp.not, label %nrvo.skipdtor, label %if.then

if.then:                                          ; preds = %invoke.cont
  %call2 = invoke noundef nonnull align 4 dereferenceable(4) ptr @_ZNSt7__cxx1112basic_stringIwSt11char_traitsIwESaIwEEixEm(ptr noundef nonnull align 8 dereferenceable(32) %agg.result, i64 noundef 0)
          to label %invoke.cont1 unwind label %lpad

invoke.cont1:                                     ; preds = %if.then
  %call5 = tail call fastcc noundef ptr @_ZN4pugi4impl12_GLOBAL__N_112utf8_decoder7processINS1_12utf32_writerEEENT_10value_typeEPKhmS6_S5_(ptr noundef %str, i64 noundef %size, ptr noundef nonnull %call2)
  br label %nrvo.skipdtor

lpad:                                             ; preds = %if.then, %_ZN4pugi4impl12_GLOBAL__N_112utf8_decoder7processINS1_13utf32_counterEEENT_10value_typeEPKhmS6_S5_.exit
  %18 = landingpad { ptr, i32 }
          cleanup
  tail call void @_ZNSt7__cxx1112basic_stringIwSt11char_traitsIwESaIwEED1Ev(ptr noundef nonnull align 8 dereferenceable(32) %agg.result) #42
  resume { ptr, i32 } %18

nrvo.skipdtor:                                    ; preds = %invoke.cont1, %invoke.cont
  ret void
}